; Function Attrs: mustprogress nounwind uwtable
define internal void @_ZN4base8internal12_GLOBAL__N_119ListHiddenRootValueD2Ev(ptr noundef nonnull align 8 dereferenceable(48) %this) unnamed_addr #4 align 2 {
entry:
  store ptr getelementptr inbounds ({ [19 x ptr] }, ptr @_ZTVN4base8internal12_GLOBAL__N_119ListHiddenRootValueE, i64 0, i32 0, i64 2), ptr %this, align 8
  %json_ = getelementptr inbounds i8, ptr %this, i64 40
  %0 = load ptr, ptr %json_, align 8
  %cmp.not.i = icmp eq ptr %0, null
  br i1 %cmp.not.i, label %_ZNSt10unique_ptrINSt7__cxx1112basic_stringIcSt11char_traitsIcESaIcEEESt14default_deleteIS5_EED2Ev.exit, label %_ZNKSt14default_deleteINSt7__cxx1112basic_stringIcSt11char_traitsIcESaIcEEEEclEPS5_.exit.i

_ZNKSt14default_deleteINSt7__cxx1112basic_stringIcSt11char_traitsIcESaIcEEEEclEPS5_.exit.i: ; preds = %entry
  tail call void @_ZNSt7__cxx1112basic_stringIcSt11char_traitsIcESaIcEED1Ev(ptr noundef nonnull align 8 dereferenceable(32) %0) #17
  tail call void @_ZdlPv(ptr noundef nonnull %0) #18
  br label %_ZNSt10unique_ptrINSt7__cxx1112basic_stringIcSt11char_traitsIcESaIcEEESt14default_deleteIS5_EED2Ev.exit

_ZNSt10unique_ptrINSt7__cxx1112basic_stringIcSt11char_traitsIcESaIcEEESt14default_deleteIS5_EED2Ev.exit: ; preds = %entry, %_ZNKSt14default_deleteINSt7__cxx1112basic_stringIcSt11char_traitsIcESaIcEEEEclEPS5_.exit.i
  store ptr null, ptr %json_, align 8
  tail call void @_ZN4base9ListValueD2Ev(ptr noundef nonnull align 8 dereferenceable(40) %this) #17
  ret void
}